ccopy_reg
_reconstructor
p0
(cnetworkx.classes.digraph
DiGraph
p1
c__builtin__
object
p2
Ntp3
Rp4
(dp5
S'node'
p6
(dp7
sS'graph'
p8
(dp9
sS'succ'
p10
(dp11
sS'edge'
p12
g11
sS'pred'
p13
(dp14
sS'adj'
p15
g11
sb.