ccopy_reg
_reconstructor
p0
(cnetworkx.classes.digraph
DiGraph
p1
c__builtin__
object
p2
Ntp3
Rp4
(dp5
S'node'
p6
(dp7
I4
(dp8
sV06:51:90:85:c9:42
p9
(dp10
ssS'graph'
p11
(dp12
sS'succ'
p13
(dp14
I4
(dp15
g9
(dp16
S'port'
p17
I4294967294
sssg9
(dp18
I4
(dp19
sssS'edge'
p20
g14
sS'pred'
p21
(dp22
I4
(dp23
g9
g19
ssg9
(dp24
I4
g16
sssS'adj'
p25
g14
sb.