ccopy_reg
_reconstructor
p0
(cnetworkx.classes.digraph
DiGraph
p1
c__builtin__
object
p2
Ntp3
Rp4
(dp5
S'node'
p6
(dp7
V32:52:94:89:f9:99
p8
(dp9
sV86:7d:5c:c6:9b:c2
p10
(dp11
sI4
(dp12
sI5
(dp13
ssS'graph'
p14
(dp15
sS'succ'
p16
(dp17
g8
(dp18
I4
(dp19
ssg10
(dp20
I4
(dp21
ssI4
(dp22
g8
(dp23
S'port'
p24
I4
ssg10
(dp25
S'port'
p26
I3
sssI5
(dp27
ssS'edge'
p28
g17
sS'pred'
p29
(dp30
g8
(dp31
I4
g23
ssg10
(dp32
I4
g25
ssI4
(dp33
g8
g19
sg10
g21
ssI5
(dp34
ssS'adj'
p35
g17
sb.