ccopy_reg
_reconstructor
p0
(cnetworkx.classes.digraph
DiGraph
p1
c__builtin__
object
p2
Ntp3
Rp4
(dp5
S'node'
p6
(dp7
V00:00:00:00:00:08
p8
(dp9
sI4
(dp10
sI5
(dp11
ssS'graph'
p12
(dp13
sS'succ'
p14
(dp15
g8
(dp16
I4
(dp17
ssI4
(dp18
g8
(dp19
S'port'
p20
I2
ssI5
(dp21
S'port'
p22
I4
sssI5
(dp23
I4
(dp24
S'port'
p25
I3
ssssS'edge'
p26
g15
sS'pred'
p27
(dp28
g8
(dp29
I4
g19
ssI4
(dp30
g8
g17
sI5
g24
ssI5
(dp31
I4
g21
sssS'adj'
p32
g15
sb.